; Function Attrs: mustprogress uwtable
define void @udat_registerOpener_75(ptr noundef %opener, ptr nocapture noundef %status) local_unnamed_addr #1 {
entry:
  %0 = load i32, ptr %status, align 4
  %cmp.i = icmp slt i32 %0, 1
  br i1 %cmp.i, label %if.end, label %return

if.end:                                           ; preds = %entry
  tail call void @umtx_lock_75(ptr noundef null)
  %1 = load ptr, ptr @_ZL7gOpener, align 8
  %cmp = icmp eq ptr %1, null
  br i1 %cmp, label %if.then1, label %if.else

if.then1:                                         ; preds = %if.end
  store ptr %opener, ptr @_ZL7gOpener, align 8
  br label %if.end2

if.else:                                          ; preds = %if.end
  store i32 1, ptr %status, align 4
  br label %if.end2

if.end2:                                          ; preds = %if.else, %if.then1
  tail call void @umtx_unlock_75(ptr noundef null)
  br label %return

return:                                           ; preds = %entry, %if.end2
  ret void
}